; Function Attrs: nounwind uwtable
define internal void @ff_jref_idct4_add(ptr noundef captures(none) %0, i64 noundef %1, ptr noundef %2) #4 {
  tail call void @ff_j_rev_dct4(ptr noundef %2) #7
  tail call void @llvm.experimental.noalias.scope.decl(metadata !53)
  %sext = shl i64 %1, 32
  %4 = ashr exact i64 %sext, 32
  br label %5

5:                                                ; preds = %5, %3
  %.029.i = phi i32 [ 0, %3 ], [ %42, %5 ]
  %.01628.i = phi ptr [ %2, %3 ], [ %41, %5 ]
  %.01727.i = phi ptr [ %0, %3 ], [ %40, %5 ]
  %6 = load i8, ptr %.01727.i, align 1, !tbaa !4, !alias.scope !53
  %7 = zext i8 %6 to i32
  %8 = load i16, ptr %.01628.i, align 2, !tbaa !13, !noalias !53
  %9 = sext i16 %8 to i32
  %10 = add nsw i32 %9, %7
  %.not.i24.i = icmp ult i32 %10, 256
  %isnotneg.i25.i = icmp sgt i32 %10, -1
  %11 = sext i1 %isnotneg.i25.i to i8
  %12 = trunc nuw i32 %10 to i8
  %.0.i26.i = select i1 %.not.i24.i, i8 %12, i8 %11
  store i8 %.0.i26.i, ptr %.01727.i, align 1, !tbaa !4, !alias.scope !53
  %13 = getelementptr inbounds nuw i8, ptr %.01727.i, i64 1
  %14 = load i8, ptr %13, align 1, !tbaa !4, !alias.scope !53
  %15 = zext i8 %14 to i32
  %16 = getelementptr inbounds nuw i8, ptr %.01628.i, i64 2
  %17 = load i16, ptr %16, align 2, !tbaa !13, !noalias !53
  %18 = sext i16 %17 to i32
  %19 = add nsw i32 %18, %15
  %.not.i21.i = icmp ult i32 %19, 256
  %isnotneg.i22.i = icmp sgt i32 %19, -1
  %20 = sext i1 %isnotneg.i22.i to i8
  %21 = trunc nuw i32 %19 to i8
  %.0.i23.i = select i1 %.not.i21.i, i8 %21, i8 %20
  store i8 %.0.i23.i, ptr %13, align 1, !tbaa !4, !alias.scope !53
  %22 = getelementptr inbounds nuw i8, ptr %.01727.i, i64 2
  %23 = load i8, ptr %22, align 1, !tbaa !4, !alias.scope !53
  %24 = zext i8 %23 to i32
  %25 = getelementptr inbounds nuw i8, ptr %.01628.i, i64 4
  %26 = load i16, ptr %25, align 2, !tbaa !13, !noalias !53
  %27 = sext i16 %26 to i32
  %28 = add nsw i32 %27, %24
  %.not.i18.i = icmp ult i32 %28, 256
  %isnotneg.i19.i = icmp sgt i32 %28, -1
  %29 = sext i1 %isnotneg.i19.i to i8
  %30 = trunc nuw i32 %28 to i8
  %.0.i20.i = select i1 %.not.i18.i, i8 %30, i8 %29
  store i8 %.0.i20.i, ptr %22, align 1, !tbaa !4, !alias.scope !53
  %31 = getelementptr inbounds nuw i8, ptr %.01727.i, i64 3
  %32 = load i8, ptr %31, align 1, !tbaa !4, !alias.scope !53
  %33 = zext i8 %32 to i32
  %34 = getelementptr inbounds nuw i8, ptr %.01628.i, i64 6
  %35 = load i16, ptr %34, align 2, !tbaa !13, !noalias !53
  %36 = sext i16 %35 to i32
  %37 = add nsw i32 %36, %33
  %.not.i.i = icmp ult i32 %37, 256
  %isnotneg.i.i = icmp sgt i32 %37, -1
  %38 = sext i1 %isnotneg.i.i to i8
  %39 = trunc nuw i32 %37 to i8
  %.0.i.i = select i1 %.not.i.i, i8 %39, i8 %38
  store i8 %.0.i.i, ptr %31, align 1, !tbaa !4, !alias.scope !53
  %40 = getelementptr inbounds i8, ptr %.01727.i, i64 %4
  %41 = getelementptr inbounds nuw i8, ptr %.01628.i, i64 16
  %42 = add nuw nsw i32 %.029.i, 1
  %exitcond.not.i = icmp eq i32 %42, 4
  br i1 %exitcond.not.i, label %add_pixels_clamped4_c.exit, label %5, !llvm.loop !56

add_pixels_clamped4_c.exit:                       ; preds = %5
  ret void
}